; ModuleID = '15/753.c'
source_filename = "15/753.c"
target datalayout = "e-m:e-p270:32:32-p271:32:32-p272:64:64-i64:64-f80:128-n8:16:32:64-S128"
target triple = "x86_64-pc-linux-gnu"

@.str = private unnamed_addr constant [3 x i8] c"%d\00", align 1

; Function Attrs: noinline nounwind uwtable
define dso_local i32 @main() #0 {
  %1 = alloca i32, align 4
  %2 = alloca [1000 x [1000 x i32]], align 16
  %3 = alloca i32, align 4
  %4 = alloca i32, align 4
  %5 = alloca i32, align 4
  %6 = alloca i32, align 4
  %7 = alloca i32, align 4
  %8 = alloca i32, align 4
  %9 = alloca i32, align 4
  %10 = alloca i32, align 4
  %11 = alloca i32, align 4
  %12 = alloca i32, align 4
  %13 = alloca i32, align 4
  %14 = alloca i32, align 4
  store i32 0, i32* %1, align 4
  %15 = call i32 (i8*, ...) @__isoc99_scanf(i8* getelementptr inbounds ([3 x i8], [3 x i8]* @.str, i64 0, i64 0), i32* %3)
  store i32 0, i32* %13, align 4
  br label %16

16:                                               ; preds = %37, %0
  %17 = load i32, i32* %13, align 4
  %18 = load i32, i32* %3, align 4
  %19 = icmp slt i32 %17, %18
  br i1 %19, label %20, label %40

20:                                               ; preds = %16
  store i32 0, i32* %14, align 4
  br label %21

21:                                               ; preds = %33, %20
  %22 = load i32, i32* %14, align 4
  %23 = load i32, i32* %3, align 4
  %24 = icmp slt i32 %22, %23
  br i1 %24, label %25, label %36

25:                                               ; preds = %21
  %26 = load i32, i32* %13, align 4
  %27 = sext i32 %26 to i64
  %28 = getelementptr inbounds [1000 x [1000 x i32]], [1000 x [1000 x i32]]* %2, i64 0, i64 %27
  %29 = load i32, i32* %14, align 4
  %30 = sext i32 %29 to i64
  %31 = getelementptr inbounds [1000 x i32], [1000 x i32]* %28, i64 0, i64 %30
  %32 = call i32 (i8*, ...) @__isoc99_scanf(i8* getelementptr inbounds ([3 x i8], [3 x i8]* @.str, i64 0, i64 0), i32* %31)
  br label %33

33:                                               ; preds = %25
  %34 = load i32, i32* %14, align 4
  %35 = add nsw i32 %34, 1
  store i32 %35, i32* %14, align 4
  br label %21

36:                                               ; preds = %21
  br label %37

37:                                               ; preds = %36
  %38 = load i32, i32* %13, align 4
  %39 = add nsw i32 %38, 1
  store i32 %39, i32* %13, align 4
  br label %16

40:                                               ; preds = %16
  store i32 0, i32* %4, align 4
  br label %41

41:                                               ; preds = %66, %40
  %42 = load i32, i32* %4, align 4
  %43 = load i32, i32* %3, align 4
  %44 = icmp slt i32 %42, %43
  br i1 %44, label %45, label %69

45:                                               ; preds = %41
  store i32 0, i32* %5, align 4
  br label %46

46:                                               ; preds = %62, %45
  %47 = load i32, i32* %5, align 4
  %48 = load i32, i32* %3, align 4
  %49 = icmp slt i32 %47, %48
  br i1 %49, label %50, label %65

50:                                               ; preds = %46
  %51 = load i32, i32* %4, align 4
  %52 = sext i32 %51 to i64
  %53 = getelementptr inbounds [1000 x [1000 x i32]], [1000 x [1000 x i32]]* %2, i64 0, i64 %52
  %54 = load i32, i32* %5, align 4
  %55 = sext i32 %54 to i64
  %56 = getelementptr inbounds [1000 x i32], [1000 x i32]* %53, i64 0, i64 %55
  %57 = load i32, i32* %56, align 4
  %58 = icmp eq i32 %57, 0
  br i1 %58, label %59, label %61

59:                                               ; preds = %50
  %60 = load i32, i32* %5, align 4
  store i32 %60, i32* %7, align 4
  br label %65

61:                                               ; preds = %50
  br label %62

62:                                               ; preds = %61
  %63 = load i32, i32* %5, align 4
  %64 = add nsw i32 %63, 1
  store i32 %64, i32* %5, align 4
  br label %46

65:                                               ; preds = %59, %46
  br label %66

66:                                               ; preds = %65
  %67 = load i32, i32* %4, align 4
  %68 = add nsw i32 %67, 1
  store i32 %68, i32* %4, align 4
  br label %41

69:                                               ; preds = %41
  store i32 0, i32* %4, align 4
  br label %70

70:                                               ; preds = %96, %69
  %71 = load i32, i32* %4, align 4
  %72 = load i32, i32* %3, align 4
  %73 = icmp slt i32 %71, %72
  br i1 %73, label %74, label %99

74:                                               ; preds = %70
  %75 = load i32, i32* %3, align 4
  %76 = sub nsw i32 %75, 1
  store i32 %76, i32* %5, align 4
  br label %77

77:                                               ; preds = %92, %74
  %78 = load i32, i32* %5, align 4
  %79 = icmp sge i32 %78, 0
  br i1 %79, label %80, label %95

80:                                               ; preds = %77
  %81 = load i32, i32* %4, align 4
  %82 = sext i32 %81 to i64
  %83 = getelementptr inbounds [1000 x [1000 x i32]], [1000 x [1000 x i32]]* %2, i64 0, i64 %82
  %84 = load i32, i32* %5, align 4
  %85 = sext i32 %84 to i64
  %86 = getelementptr inbounds [1000 x i32], [1000 x i32]* %83, i64 0, i64 %85
  %87 = load i32, i32* %86, align 4
  %88 = icmp eq i32 %87, 0
  br i1 %88, label %89, label %91

89:                                               ; preds = %80
  %90 = load i32, i32* %5, align 4
  store i32 %90, i32* %6, align 4
  br label %95

91:                                               ; preds = %80
  br label %92

92:                                               ; preds = %91
  %93 = load i32, i32* %5, align 4
  %94 = add nsw i32 %93, -1
  store i32 %94, i32* %5, align 4
  br label %77

95:                                               ; preds = %89, %77
  br label %96

96:                                               ; preds = %95
  %97 = load i32, i32* %4, align 4
  %98 = add nsw i32 %97, 1
  store i32 %98, i32* %4, align 4
  br label %70

99:                                               ; preds = %70
  %100 = load i32, i32* %3, align 4
  %101 = sub nsw i32 %100, 1
  store i32 %101, i32* %8, align 4
  br label %102

102:                                              ; preds = %127, %99
  %103 = load i32, i32* %8, align 4
  %104 = icmp sge i32 %103, 0
  br i1 %104, label %105, label %130

105:                                              ; preds = %102
  %106 = load i32, i32* %3, align 4
  %107 = sub nsw i32 %106, 1
  store i32 %107, i32* %9, align 4
  br label %108

108:                                              ; preds = %123, %105
  %109 = load i32, i32* %9, align 4
  %110 = icmp sge i32 %109, 0
  br i1 %110, label %111, label %126

111:                                              ; preds = %108
  %112 = load i32, i32* %8, align 4
  %113 = sext i32 %112 to i64
  %114 = getelementptr inbounds [1000 x [1000 x i32]], [1000 x [1000 x i32]]* %2, i64 0, i64 %113
  %115 = load i32, i32* %9, align 4
  %116 = sext i32 %115 to i64
  %117 = getelementptr inbounds [1000 x i32], [1000 x i32]* %114, i64 0, i64 %116
  %118 = load i32, i32* %117, align 4
  %119 = icmp eq i32 %118, 0
  br i1 %119, label %120, label %122

120:                                              ; preds = %111
  %121 = load i32, i32* %8, align 4
  store i32 %121, i32* %10, align 4
  br label %126

122:                                              ; preds = %111
  br label %123

123:                                              ; preds = %122
  %124 = load i32, i32* %9, align 4
  %125 = add nsw i32 %124, -1
  store i32 %125, i32* %9, align 4
  br label %108

126:                                              ; preds = %120, %108
  br label %127

127:                                              ; preds = %126
  %128 = load i32, i32* %8, align 4
  %129 = add nsw i32 %128, -1
  store i32 %129, i32* %8, align 4
  br label %102

130:                                              ; preds = %102
  store i32 0, i32* %8, align 4
  br label %131

131:                                              ; preds = %157, %130
  %132 = load i32, i32* %8, align 4
  %133 = load i32, i32* %3, align 4
  %134 = icmp slt i32 %132, %133
  br i1 %134, label %135, label %160

135:                                              ; preds = %131
  %136 = load i32, i32* %3, align 4
  %137 = sub nsw i32 %136, 1
  store i32 %137, i32* %9, align 4
  br label %138

138:                                              ; preds = %153, %135
  %139 = load i32, i32* %9, align 4
  %140 = icmp sge i32 %139, 0
  br i1 %140, label %141, label %156

141:                                              ; preds = %138
  %142 = load i32, i32* %8, align 4
  %143 = sext i32 %142 to i64
  %144 = getelementptr inbounds [1000 x [1000 x i32]], [1000 x [1000 x i32]]* %2, i64 0, i64 %143
  %145 = load i32, i32* %9, align 4
  %146 = sext i32 %145 to i64
  %147 = getelementptr inbounds [1000 x i32], [1000 x i32]* %144, i64 0, i64 %146
  %148 = load i32, i32* %147, align 4
  %149 = icmp eq i32 %148, 0
  br i1 %149, label %150, label %152

150:                                              ; preds = %141
  %151 = load i32, i32* %8, align 4
  store i32 %151, i32* %11, align 4
  br label %156

152:                                              ; preds = %141
  br label %153

153:                                              ; preds = %152
  %154 = load i32, i32* %9, align 4
  %155 = add nsw i32 %154, -1
  store i32 %155, i32* %9, align 4
  br label %138

156:                                              ; preds = %150, %138
  br label %157

157:                                              ; preds = %156
  %158 = load i32, i32* %8, align 4
  %159 = add nsw i32 %158, 1
  store i32 %159, i32* %8, align 4
  br label %131

160:                                              ; preds = %131
  %161 = load i32, i32* %11, align 4
  %162 = load i32, i32* %10, align 4
  %163 = sub nsw i32 %161, %162
  %164 = sub nsw i32 %163, 1
  %165 = load i32, i32* %6, align 4
  %166 = load i32, i32* %7, align 4
  %167 = sub nsw i32 %165, %166
  %168 = sub nsw i32 %167, 1
  %169 = mul nsw i32 %164, %168
  store i32 %169, i32* %12, align 4
  %170 = load i32, i32* %12, align 4
  %171 = call i32 (i8*, ...) @printf(i8* getelementptr inbounds ([3 x i8], [3 x i8]* @.str, i64 0, i64 0), i32 %170)
  ret i32 0
}

declare dso_local i32 @__isoc99_scanf(i8*, ...) #1

declare dso_local i32 @printf(i8*, ...) #1


!llvm.module.flags = !{!0}
!llvm.ident = !{!1}

!0 = !{i32 1, !"wchar_size", i32 4}
!1 = !{!"clang version 10.0.0-4ubuntu1 "}
